target datalayout = "e-m:e-p270:32:32-p271:32:32-p272:64:64-i64:64-i128:128-f80:128-n8:16:32:64-S128"
target triple = "x86_64-pc-linux-gnu"

%struct.cli_matcher = type { i32, ptr, ptr, ptr, ptr, i32, i32, i32, i32, i32, %struct.cli_hash_patt, %struct.cli_hash_wild, i32, i32, i32, i32, i32, ptr, ptr, ptr, ptr, ptr, ptr, i32, i32, i8, i8, ptr, i16, i8, i32, ptr, i32, i32, i32, ptr, ptr, i32, ptr, i64, i64, ptr }
%struct.cli_hash_patt = type { [3 x %struct.cli_htu32] }
%struct.cli_htu32 = type { ptr, i64, i64, i64 }
%struct.cli_hash_wild = type { [3 x %struct.cli_sz_hash] }
%struct.cli_sz_hash = type { ptr, ptr, i32 }
%struct.cli_ac_node = type { ptr, ptr, ptr }
%struct.cli_mtarget = type { [10 x i32], ptr, i32, i8, i8, i8 }

@.str.4 = private unnamed_addr constant [47 x i8] c"root->mempool && \22mempool must be initialized\22\00", align 1
@.str.5 = private unnamed_addr constant [114 x i8] c"generated/home/dtcxzyw/WorkSpace/Projects/compilers/llvm-opt-benchmark/bench/clamav/clamav/libclamav/matcher-ac.c\00", align 1
@__PRETTY_FUNCTION__.cli_ac_init = private unnamed_addr constant [72 x i8] c"cl_error_t cli_ac_init(struct cli_matcher *, uint8_t, uint8_t, uint8_t)\00", align 1
@.str.6 = private unnamed_addr constant [48 x i8] c"cli_ac_init: Can't allocate memory for ac_root\0A\00", align 1
@.str.7 = private unnamed_addr constant [55 x i8] c"cli_ac_init: Can't allocate memory for ac_root->trans\0A\00", align 1
@.str.8 = private unnamed_addr constant [56 x i8] c"cli_ac_init: Can't allocate memory for ac_root->filter\0A\00", align 1

; Function Attrs: nounwind uwtable
define i32 @cli_ac_init(ptr noundef %0, i8 noundef zeroext %1, i8 noundef zeroext %2, i8 noundef zeroext %3) #0 {
  %5 = alloca i32, align 4
  %6 = alloca ptr, align 8
  %7 = alloca i8, align 1
  %8 = alloca i8, align 1
  %9 = alloca i8, align 1
  store ptr %0, ptr %6, align 8, !tbaa !3
  store i8 %1, ptr %7, align 1, !tbaa !55
  store i8 %2, ptr %8, align 1, !tbaa !55
  store i8 %3, ptr %9, align 1, !tbaa !55
  %10 = load ptr, ptr %6, align 8, !tbaa !3
  %11 = getelementptr inbounds nuw %struct.cli_matcher, ptr %10, i32 0, i32 41
  %12 = load ptr, ptr %11, align 8, !tbaa !37
  %13 = icmp ne ptr %12, null
  br i1 %13, label %14, label %16

14:                                               ; preds = %4
  br i1 true, label %15, label %16

15:                                               ; preds = %14
  br label %17

16:                                               ; preds = %14, %4
  call void @__assert_fail(ptr noundef @.str.4, ptr noundef @.str.5, i32 noundef 648, ptr noundef @__PRETTY_FUNCTION__.cli_ac_init) #18
  unreachable

17:                                               ; preds = %15
  %18 = load ptr, ptr %6, align 8, !tbaa !3
  %19 = getelementptr inbounds nuw %struct.cli_matcher, ptr %18, i32 0, i32 41
  %20 = load ptr, ptr %19, align 8, !tbaa !37
  %21 = call ptr @mpool_calloc(ptr noundef %20, i64 noundef 1, i64 noundef 24)
  %22 = load ptr, ptr %6, align 8, !tbaa !3
  %23 = getelementptr inbounds nuw %struct.cli_matcher, ptr %22, i32 0, i32 18
  store ptr %21, ptr %23, align 8, !tbaa !41
  %24 = load ptr, ptr %6, align 8, !tbaa !3
  %25 = getelementptr inbounds nuw %struct.cli_matcher, ptr %24, i32 0, i32 18
  %26 = load ptr, ptr %25, align 8, !tbaa !41
  %27 = icmp ne ptr %26, null
  br i1 %27, label %29, label %28

28:                                               ; preds = %17
  call void (ptr, ...) @cli_errmsg(ptr noundef @.str.6)
  store i32 20, ptr %5, align 4
  br label %102

29:                                               ; preds = %17
  %30 = load ptr, ptr %6, align 8, !tbaa !3
  %31 = getelementptr inbounds nuw %struct.cli_matcher, ptr %30, i32 0, i32 41
  %32 = load ptr, ptr %31, align 8, !tbaa !37
  %33 = call ptr @mpool_calloc(ptr noundef %32, i64 noundef 256, i64 noundef 8)
  %34 = load ptr, ptr %6, align 8, !tbaa !3
  %35 = getelementptr inbounds nuw %struct.cli_matcher, ptr %34, i32 0, i32 18
  %36 = load ptr, ptr %35, align 8, !tbaa !41
  %37 = getelementptr inbounds nuw %struct.cli_ac_node, ptr %36, i32 0, i32 1
  store ptr %33, ptr %37, align 8, !tbaa !43
  %38 = load ptr, ptr %6, align 8, !tbaa !3
  %39 = getelementptr inbounds nuw %struct.cli_matcher, ptr %38, i32 0, i32 18
  %40 = load ptr, ptr %39, align 8, !tbaa !41
  %41 = getelementptr inbounds nuw %struct.cli_ac_node, ptr %40, i32 0, i32 1
  %42 = load ptr, ptr %41, align 8, !tbaa !43
  %43 = icmp ne ptr %42, null
  br i1 %43, label %51, label %44

44:                                               ; preds = %29
  call void (ptr, ...) @cli_errmsg(ptr noundef @.str.7)
  %45 = load ptr, ptr %6, align 8, !tbaa !3
  %46 = getelementptr inbounds nuw %struct.cli_matcher, ptr %45, i32 0, i32 41
  %47 = load ptr, ptr %46, align 8, !tbaa !37
  %48 = load ptr, ptr %6, align 8, !tbaa !3
  %49 = getelementptr inbounds nuw %struct.cli_matcher, ptr %48, i32 0, i32 18
  %50 = load ptr, ptr %49, align 8, !tbaa !41
  call void @mpool_free(ptr noundef %47, ptr noundef %50)
  store i32 20, ptr %5, align 4
  br label %102

51:                                               ; preds = %29
  %52 = load i8, ptr %7, align 1, !tbaa !55
  %53 = load ptr, ptr %6, align 8, !tbaa !3
  %54 = getelementptr inbounds nuw %struct.cli_matcher, ptr %53, i32 0, i32 25
  store i8 %52, ptr %54, align 8, !tbaa !35
  %55 = load i8, ptr %8, align 1, !tbaa !55
  %56 = load ptr, ptr %6, align 8, !tbaa !3
  %57 = getelementptr inbounds nuw %struct.cli_matcher, ptr %56, i32 0, i32 26
  store i8 %55, ptr %57, align 1, !tbaa !10
  %58 = load ptr, ptr %6, align 8, !tbaa !3
  %59 = getelementptr inbounds nuw %struct.cli_matcher, ptr %58, i32 0, i32 0
  %60 = load i32, ptr %59, align 8, !tbaa !51
  %61 = zext i32 %60 to i64
  %62 = getelementptr inbounds nuw [15 x %struct.cli_mtarget], ptr @cli_mtargets, i64 0, i64 %61
  %63 = getelementptr inbounds nuw %struct.cli_mtarget, ptr %62, i32 0, i32 4
  %64 = load i8, ptr %63, align 1, !tbaa !60
  %65 = zext i8 %64 to i32
  %66 = icmp ne i32 %65, 0
  br i1 %66, label %67, label %101

67:                                               ; preds = %51
  %68 = load i8, ptr %9, align 1, !tbaa !55
  %69 = zext i8 %68 to i32
  %70 = icmp ne i32 %69, 0
  br i1 %70, label %71, label %101

71:                                               ; preds = %67
  %72 = load ptr, ptr %6, align 8, !tbaa !3
  %73 = getelementptr inbounds nuw %struct.cli_matcher, ptr %72, i32 0, i32 41
  %74 = load ptr, ptr %73, align 8, !tbaa !37
  %75 = call ptr @mpool_malloc(ptr noundef %74, i64 noundef 131080)
  %76 = load ptr, ptr %6, align 8, !tbaa !3
  %77 = getelementptr inbounds nuw %struct.cli_matcher, ptr %76, i32 0, i32 27
  store ptr %75, ptr %77, align 8, !tbaa !50
  %78 = load ptr, ptr %6, align 8, !tbaa !3
  %79 = getelementptr inbounds nuw %struct.cli_matcher, ptr %78, i32 0, i32 27
  %80 = load ptr, ptr %79, align 8, !tbaa !50
  %81 = icmp ne ptr %80, null
  br i1 %81, label %97, label %82

82:                                               ; preds = %71
  call void (ptr, ...) @cli_errmsg(ptr noundef @.str.8)
  %83 = load ptr, ptr %6, align 8, !tbaa !3
  %84 = getelementptr inbounds nuw %struct.cli_matcher, ptr %83, i32 0, i32 41
  %85 = load ptr, ptr %84, align 8, !tbaa !37
  %86 = load ptr, ptr %6, align 8, !tbaa !3
  %87 = getelementptr inbounds nuw %struct.cli_matcher, ptr %86, i32 0, i32 18
  %88 = load ptr, ptr %87, align 8, !tbaa !41
  %89 = getelementptr inbounds nuw %struct.cli_ac_node, ptr %88, i32 0, i32 1
  %90 = load ptr, ptr %89, align 8, !tbaa !43
  call void @mpool_free(ptr noundef %85, ptr noundef %90)
  %91 = load ptr, ptr %6, align 8, !tbaa !3
  %92 = getelementptr inbounds nuw %struct.cli_matcher, ptr %91, i32 0, i32 41
  %93 = load ptr, ptr %92, align 8, !tbaa !37
  %94 = load ptr, ptr %6, align 8, !tbaa !3
  %95 = getelementptr inbounds nuw %struct.cli_matcher, ptr %94, i32 0, i32 18
  %96 = load ptr, ptr %95, align 8, !tbaa !41
  call void @mpool_free(ptr noundef %93, ptr noundef %96)
  store i32 20, ptr %5, align 4
  br label %102

97:                                               ; preds = %71
  %98 = load ptr, ptr %6, align 8, !tbaa !3
  %99 = getelementptr inbounds nuw %struct.cli_matcher, ptr %98, i32 0, i32 27
  %100 = load ptr, ptr %99, align 8, !tbaa !50
  call void @filter_init(ptr noundef %100)
  br label %101

101:                                              ; preds = %97, %67, %51
  store i32 0, ptr %5, align 4
  br label %102

102:                                              ; preds = %101, %82, %44, %28
  %103 = load i32, ptr %5, align 4
  ret i32 %103
}