; Function Attrs: nounwind uwtable
define range(i32 0, 21) i32 @cli_ac_init(ptr noundef captures(none) %0, i8 noundef zeroext %1, i8 noundef zeroext %2, i8 noundef zeroext %3) local_unnamed_addr #0 {
  %5 = getelementptr inbounds nuw i8, ptr %0, i64 408
  %6 = load ptr, ptr %5, align 8, !tbaa !33
  %.not = icmp eq ptr %6, null
  br i1 %.not, label %7, label %8

7:                                                ; preds = %4
  tail call void @__assert_fail(ptr noundef nonnull @.str.4, ptr noundef nonnull @.str.5, i32 noundef 648, ptr noundef nonnull @__PRETTY_FUNCTION__.cli_ac_init) #22
  unreachable

8:                                                ; preds = %4
  %9 = tail call ptr @mpool_calloc(ptr noundef nonnull %6, i64 noundef 1, i64 noundef 24) #19
  %10 = getelementptr inbounds nuw i8, ptr %0, i64 264
  store ptr %9, ptr %10, align 8, !tbaa !38
  %.not27 = icmp eq ptr %9, null
  br i1 %.not27, label %11, label %12

11:                                               ; preds = %8
  tail call void (ptr, ...) @cli_errmsg(ptr noundef nonnull @.str.6) #19
  br label %41

12:                                               ; preds = %8
  %13 = load ptr, ptr %5, align 8, !tbaa !33
  %14 = tail call ptr @mpool_calloc(ptr noundef %13, i64 noundef 256, i64 noundef 8) #19
  %15 = load ptr, ptr %10, align 8, !tbaa !38
  %16 = getelementptr inbounds nuw i8, ptr %15, i64 8
  store ptr %14, ptr %16, align 8, !tbaa !46
  %.not28 = icmp eq ptr %14, null
  br i1 %.not28, label %17, label %20

17:                                               ; preds = %12
  tail call void (ptr, ...) @cli_errmsg(ptr noundef nonnull @.str.7) #19
  %18 = load ptr, ptr %5, align 8, !tbaa !33
  %19 = load ptr, ptr %10, align 8, !tbaa !38
  tail call void @mpool_free(ptr noundef %18, ptr noundef %19) #19
  br label %41

20:                                               ; preds = %12
  %21 = getelementptr inbounds nuw i8, ptr %0, i64 312
  store i8 %1, ptr %21, align 8, !tbaa !31
  %22 = getelementptr inbounds nuw i8, ptr %0, i64 313
  store i8 %2, ptr %22, align 1, !tbaa !3
  %23 = load i32, ptr %0, align 8, !tbaa !58
  %24 = zext i32 %23 to i64
  %25 = getelementptr inbounds nuw [15 x %struct.cli_mtarget], ptr @cli_mtargets, i64 0, i64 %24, i32 4
  %26 = load i8, ptr %25, align 1, !tbaa !66
  %27 = icmp ne i8 %26, 0
  %28 = icmp ne i8 %3, 0
  %or.cond = and i1 %28, %27
  br i1 %or.cond, label %29, label %41

29:                                               ; preds = %20
  %30 = load ptr, ptr %5, align 8, !tbaa !33
  %31 = tail call ptr @mpool_malloc(ptr noundef %30, i64 noundef 131080) #19
  %32 = getelementptr inbounds nuw i8, ptr %0, i64 320
  store ptr %31, ptr %32, align 8, !tbaa !57
  %.not29 = icmp eq ptr %31, null
  br i1 %.not29, label %33, label %40

33:                                               ; preds = %29
  tail call void (ptr, ...) @cli_errmsg(ptr noundef nonnull @.str.8) #19
  %34 = load ptr, ptr %5, align 8, !tbaa !33
  %35 = load ptr, ptr %10, align 8, !tbaa !38
  %36 = getelementptr inbounds nuw i8, ptr %35, i64 8
  %37 = load ptr, ptr %36, align 8, !tbaa !46
  tail call void @mpool_free(ptr noundef %34, ptr noundef %37) #19
  %38 = load ptr, ptr %5, align 8, !tbaa !33
  %39 = load ptr, ptr %10, align 8, !tbaa !38
  tail call void @mpool_free(ptr noundef %38, ptr noundef %39) #19
  br label %41

40:                                               ; preds = %29
  tail call void @filter_init(ptr noundef nonnull %31) #19
  br label %41

41:                                               ; preds = %20, %40, %33, %17, %11
  %.0 = phi i32 [ 20, %33 ], [ 20, %17 ], [ 20, %11 ], [ 0, %40 ], [ 0, %20 ]
  ret i32 %.0
}